target datalayout = "e-m:e-p270:32:32-p271:32:32-p272:64:64-i64:64-i128:128-f80:128-n8:16:32:64-S128"
target triple = "x86_64-unknown-linux-gnu"

%"class.node::crypto::ByteSource" = type { ptr, ptr, i64 }

@.str.16 = private unnamed_addr constant [32 x i8] c"../../src/crypto/crypto_util.cc\00", align 1

; Function Attrs: mustprogress nounwind uwtable
define dso_local noundef nonnull align 8 dereferenceable(24) ptr @_ZN4node6crypto10ByteSourceaSEOS1_(ptr noundef nonnull align 8 dereferenceable(24) %this, ptr noundef nonnull align 8 dereferenceable(24) %other) #4 align 2 {
entry:
  %this.addr = alloca ptr, align 8
  %other.addr = alloca ptr, align 8
  store ptr %this, ptr %this.addr, align 8
  store ptr %other, ptr %other.addr, align 8
  %this1 = load ptr, ptr %this.addr, align 8
  %0 = load ptr, ptr %other.addr, align 8
  %cmp = icmp ne ptr %0, %this1
  br i1 %cmp, label %if.then, label %if.end

if.then:                                          ; preds = %entry
  %allocated_data_ = getelementptr inbounds %"class.node::crypto::ByteSource", ptr %this1, i32 0, i32 1
  %1 = load ptr, ptr %allocated_data_, align 8
  %size_ = getelementptr inbounds %"class.node::crypto::ByteSource", ptr %this1, i32 0, i32 2
  %2 = load i64, ptr %size_, align 8
  call void @CRYPTO_clear_free(ptr noundef %1, i64 noundef %2, ptr noundef @.str.16, i32 noundef 342)
  %3 = load ptr, ptr %other.addr, align 8
  %data_ = getelementptr inbounds %"class.node::crypto::ByteSource", ptr %3, i32 0, i32 0
  %4 = load ptr, ptr %data_, align 8
  %data_2 = getelementptr inbounds %"class.node::crypto::ByteSource", ptr %this1, i32 0, i32 0
  store ptr %4, ptr %data_2, align 8
  %5 = load ptr, ptr %other.addr, align 8
  %allocated_data_3 = getelementptr inbounds %"class.node::crypto::ByteSource", ptr %5, i32 0, i32 1
  %6 = load ptr, ptr %allocated_data_3, align 8
  %allocated_data_4 = getelementptr inbounds %"class.node::crypto::ByteSource", ptr %this1, i32 0, i32 1
  store ptr %6, ptr %allocated_data_4, align 8
  %7 = load ptr, ptr %other.addr, align 8
  %allocated_data_5 = getelementptr inbounds %"class.node::crypto::ByteSource", ptr %7, i32 0, i32 1
  store ptr null, ptr %allocated_data_5, align 8
  %8 = load ptr, ptr %other.addr, align 8
  %size_6 = getelementptr inbounds %"class.node::crypto::ByteSource", ptr %8, i32 0, i32 2
  %9 = load i64, ptr %size_6, align 8
  %size_7 = getelementptr inbounds %"class.node::crypto::ByteSource", ptr %this1, i32 0, i32 2
  store i64 %9, ptr %size_7, align 8
  br label %if.end

if.end:                                           ; preds = %if.then, %entry
  ret ptr %this1
}