; Function Attrs: mustprogress nounwind uwtable
define dso_local noundef nonnull align 8 dereferenceable(24) ptr @_ZN4node6crypto10ByteSourceaSEOS1_(ptr noundef nonnull returned align 8 dereferenceable(24) %this, ptr noundef nonnull align 8 dereferenceable(24) %other) local_unnamed_addr #4 align 2 {
entry:
  %cmp.not = icmp eq ptr %other, %this
  br i1 %cmp.not, label %if.end, label %if.then

if.then:                                          ; preds = %entry
  %allocated_data_ = getelementptr inbounds i8, ptr %this, i64 8
  %0 = load ptr, ptr %allocated_data_, align 8
  %size_ = getelementptr inbounds i8, ptr %this, i64 16
  %1 = load i64, ptr %size_, align 8
  tail call void @CRYPTO_clear_free(ptr noundef %0, i64 noundef %1, ptr noundef nonnull @.str.16, i32 noundef 342) #25
  %2 = load ptr, ptr %other, align 8
  store ptr %2, ptr %this, align 8
  %allocated_data_3 = getelementptr inbounds i8, ptr %other, i64 8
  %3 = load ptr, ptr %allocated_data_3, align 8
  store ptr %3, ptr %allocated_data_, align 8
  store ptr null, ptr %allocated_data_3, align 8
  %size_6 = getelementptr inbounds i8, ptr %other, i64 16
  %4 = load i64, ptr %size_6, align 8
  store i64 %4, ptr %size_, align 8
  br label %if.end

if.end:                                           ; preds = %if.then, %entry
  ret ptr %this
}